target datalayout = "e-m:e-p270:32:32-p271:32:32-p272:64:64-i64:64-i128:128-f80:128-n8:16:32:64-S128"
target triple = "x86_64-pc-linux-gnu"

%struct.Vec_Int_t_ = type { i32, i32, ptr }
%struct.Abc_Ntk_t_ = type { i32, i32, ptr, ptr, ptr, ptr, ptr, ptr, ptr, ptr, ptr, ptr, ptr, [11 x i32], i32, i32, i32, i32, ptr, i32, ptr, ptr, i32, i32, i32, double, i32, %struct.Vec_Int_t_, ptr, ptr, ptr, ptr, ptr, float, i32, ptr, ptr, ptr, ptr, ptr, ptr, ptr, ptr, ptr, ptr, ptr, ptr, ptr, ptr, ptr, ptr, ptr, ptr, ptr, ptr, ptr }
%struct.Aig_Man_t_ = type { ptr, ptr, ptr, ptr, ptr, ptr, ptr, %struct.Aig_Obj_t_, i32, i32, i32, i32, i32, i32, [7 x i32], i32, ptr, i32, ptr, i32, ptr, i32, i32, i32, ptr, i32, i32, i32, i32, i32, ptr, ptr, i32, ptr, ptr, i32, ptr, ptr, i32, i32, i32, ptr, ptr, ptr, ptr, ptr, ptr, ptr, ptr, ptr, ptr, ptr, ptr, ptr, ptr, i32, ptr, ptr, ptr, ptr, i32, i64, i64, i64, ptr, ptr }
%struct.Aig_Obj_t_ = type { %union.anon, ptr, ptr, i64, i32, i32, %union.anon.0 }
%union.anon = type { ptr }
%union.anon.0 = type { ptr }
%struct.timespec = type { i64, i64 }

@.str.25 = private unnamed_addr constant [5 x i8] c"Time\00", align 1
@.str.26 = private unnamed_addr constant [66 x i8] c"Abc_NtkDarCec(): Switching to non-partitioned CEC for the miter.\0A\00", align 1
@.str.27 = private unnamed_addr constant [31 x i8] c"Miter computation has failed.\0A\00", align 1
@.str.28 = private unnamed_addr constant [55 x i8] c"Networks are NOT EQUIVALENT after structural hashing.\0A\00", align 1
@.str.29 = private unnamed_addr constant [51 x i8] c"Networks are equivalent after structural hashing.\0A\00", align 1
@.str.30 = private unnamed_addr constant [39 x i8] c"Converting miter into AIG has failed.\0A\00", align 1
@.str.31 = private unnamed_addr constant [27 x i8] c"Networks are equivalent.  \00", align 1
@.str.32 = private unnamed_addr constant [5 x i8] c"%s =\00", align 1
@.str.33 = private unnamed_addr constant [11 x i8] c"%9.2f sec\0A\00", align 1
@.str.34 = private unnamed_addr constant [31 x i8] c"Networks are NOT EQUIVALENT.  \00", align 1
@.str.35 = private unnamed_addr constant [26 x i8] c"Networks are UNDECIDED.  \00", align 1
@stdout = external global ptr, align 8

; Function Attrs: nounwind uwtable
define internal i64 @Abc_Clock() #0 {
  %1 = alloca i64, align 8
  %2 = alloca %struct.timespec, align 8
  %3 = alloca i64, align 8
  %4 = call i32 @clock_gettime(i32 noundef 1, ptr noundef %2) #10
  %5 = icmp slt i32 %4, 0
  br i1 %5, label %6, label %7

6:                                                ; preds = %0
  store i64 -1, ptr %1, align 8
  br label %18

7:                                                ; preds = %0
  %8 = getelementptr inbounds %struct.timespec, ptr %2, i32 0, i32 0
  %9 = load i64, ptr %8, align 8
  %10 = mul nsw i64 %9, 1000000
  store i64 %10, ptr %3, align 8
  %11 = getelementptr inbounds %struct.timespec, ptr %2, i32 0, i32 1
  %12 = load i64, ptr %11, align 8
  %13 = mul nsw i64 %12, 1000000
  %14 = sdiv i64 %13, 1000000000
  %15 = load i64, ptr %3, align 8
  %16 = add nsw i64 %15, %14
  store i64 %16, ptr %3, align 8
  %17 = load i64, ptr %3, align 8
  store i64 %17, ptr %1, align 8
  br label %18

18:                                               ; preds = %7, %6
  %19 = load i64, ptr %1, align 8
  ret i64 %19
}

; Function Attrs: nounwind uwtable
define i32 @Abc_NtkDarCec(ptr noundef %0, ptr noundef %1, i32 noundef %2, i32 noundef %3, i32 noundef %4) #0 {
  %6 = alloca i32, align 4
  %7 = alloca ptr, align 8
  %8 = alloca ptr, align 8
  %9 = alloca i32, align 4
  %10 = alloca i32, align 4
  %11 = alloca i32, align 4
  %12 = alloca ptr, align 8
  %13 = alloca ptr, align 8
  %14 = alloca ptr, align 8
  %15 = alloca ptr, align 8
  %16 = alloca i32, align 4
  %17 = alloca i64, align 8
  store ptr %0, ptr %7, align 8
  store ptr %1, ptr %8, align 8
  store i32 %2, ptr %9, align 4
  store i32 %3, ptr %10, align 4
  store i32 %4, ptr %11, align 4
  %18 = call i64 @Abc_Clock()
  store i64 %18, ptr %17, align 8
  %19 = load ptr, ptr %8, align 8
  %20 = icmp eq ptr %19, null
  br i1 %20, label %21, label %25

21:                                               ; preds = %5
  %22 = load i32, ptr %10, align 4
  %23 = icmp eq i32 %22, 1
  br i1 %23, label %24, label %25

24:                                               ; preds = %21
  call void (i32, ptr, ...) @Abc_Print(i32 noundef 1, ptr noundef @.str.26)
  store i32 0, ptr %10, align 4
  br label %25

25:                                               ; preds = %24, %21, %5
  %26 = load i32, ptr %10, align 4
  %27 = icmp ne i32 %26, 0
  br i1 %27, label %28, label %40

28:                                               ; preds = %25
  %29 = load ptr, ptr %7, align 8
  %30 = call ptr @Abc_NtkToDar(ptr noundef %29, i32 noundef 0, i32 noundef 0)
  store ptr %30, ptr %13, align 8
  %31 = load ptr, ptr %8, align 8
  %32 = call ptr @Abc_NtkToDar(ptr noundef %31, i32 noundef 0, i32 noundef 0)
  store ptr %32, ptr %14, align 8
  %33 = load ptr, ptr %13, align 8
  %34 = load ptr, ptr %14, align 8
  %35 = load i32, ptr %9, align 4
  %36 = load i32, ptr %11, align 4
  %37 = call i32 @Fra_FraigCecPartitioned(ptr noundef %33, ptr noundef %34, i32 noundef %35, i32 noundef 100, i32 noundef 1, i32 noundef %36)
  store i32 %37, ptr %16, align 4
  %38 = load ptr, ptr %13, align 8
  call void @Aig_ManStop(ptr noundef %38)
  %39 = load ptr, ptr %14, align 8
  call void @Aig_ManStop(ptr noundef %39)
  br label %96

40:                                               ; preds = %25
  %41 = load ptr, ptr %8, align 8
  %42 = icmp ne ptr %41, null
  br i1 %42, label %43, label %51

43:                                               ; preds = %40
  %44 = load ptr, ptr %7, align 8
  %45 = load ptr, ptr %8, align 8
  %46 = call ptr @Abc_NtkMiter(ptr noundef %44, ptr noundef %45, i32 noundef 0, i32 noundef 0, i32 noundef 0, i32 noundef 0)
  store ptr %46, ptr %15, align 8
  %47 = load ptr, ptr %15, align 8
  %48 = icmp eq ptr %47, null
  br i1 %48, label %49, label %50

49:                                               ; preds = %43
  call void (i32, ptr, ...) @Abc_Print(i32 noundef 1, ptr noundef @.str.27)
  store i32 0, ptr %6, align 4
  br label %128

50:                                               ; preds = %43
  br label %54

51:                                               ; preds = %40
  %52 = load ptr, ptr %7, align 8
  %53 = call ptr @Abc_NtkDup(ptr noundef %52)
  store ptr %53, ptr %15, align 8
  br label %54

54:                                               ; preds = %51, %50
  %55 = load ptr, ptr %15, align 8
  %56 = call i32 @Abc_NtkMiterIsConstant(ptr noundef %55)
  store i32 %56, ptr %16, align 4
  %57 = load i32, ptr %16, align 4
  %58 = icmp eq i32 %57, 0
  br i1 %58, label %59, label %69

59:                                               ; preds = %54
  call void (i32, ptr, ...) @Abc_Print(i32 noundef 1, ptr noundef @.str.28)
  %60 = load ptr, ptr %8, align 8
  %61 = icmp eq ptr %60, null
  br i1 %61, label %62, label %67

62:                                               ; preds = %59
  %63 = load ptr, ptr %7, align 8
  %64 = call ptr @Abc_NtkVerifyGetCleanModel(ptr noundef %63, i32 noundef 1)
  %65 = load ptr, ptr %7, align 8
  %66 = getelementptr inbounds %struct.Abc_Ntk_t_, ptr %65, i32 0, i32 37
  store ptr %64, ptr %66, align 8
  br label %67

67:                                               ; preds = %62, %59
  %68 = load ptr, ptr %15, align 8
  call void @Abc_NtkDelete(ptr noundef %68)
  store i32 0, ptr %6, align 4
  br label %128

69:                                               ; preds = %54
  %70 = load i32, ptr %16, align 4
  %71 = icmp eq i32 %70, 1
  br i1 %71, label %72, label %74

72:                                               ; preds = %69
  %73 = load ptr, ptr %15, align 8
  call void @Abc_NtkDelete(ptr noundef %73)
  call void (i32, ptr, ...) @Abc_Print(i32 noundef 1, ptr noundef @.str.29)
  store i32 1, ptr %6, align 4
  br label %128

74:                                               ; preds = %69
  %75 = load ptr, ptr %15, align 8
  %76 = call ptr @Abc_NtkToDar(ptr noundef %75, i32 noundef 0, i32 noundef 0)
  store ptr %76, ptr %12, align 8
  %77 = load ptr, ptr %15, align 8
  call void @Abc_NtkDelete(ptr noundef %77)
  %78 = load ptr, ptr %12, align 8
  %79 = icmp eq ptr %78, null
  br i1 %79, label %80, label %81

80:                                               ; preds = %74
  call void (i32, ptr, ...) @Abc_Print(i32 noundef 1, ptr noundef @.str.30)
  store i32 -1, ptr %6, align 4
  br label %128

81:                                               ; preds = %74
  %82 = load i32, ptr %11, align 4
  %83 = call i32 @Fra_FraigCec(ptr noundef %12, i32 noundef 100000, i32 noundef %82)
  store i32 %83, ptr %16, align 4
  %84 = load ptr, ptr %8, align 8
  %85 = icmp eq ptr %84, null
  br i1 %85, label %86, label %94

86:                                               ; preds = %81
  %87 = load ptr, ptr %12, align 8
  %88 = getelementptr inbounds %struct.Aig_Man_t_, ptr %87, i32 0, i32 36
  %89 = load ptr, ptr %88, align 8
  %90 = load ptr, ptr %7, align 8
  %91 = getelementptr inbounds %struct.Abc_Ntk_t_, ptr %90, i32 0, i32 37
  store ptr %89, ptr %91, align 8
  %92 = load ptr, ptr %12, align 8
  %93 = getelementptr inbounds %struct.Aig_Man_t_, ptr %92, i32 0, i32 36
  store ptr null, ptr %93, align 8
  br label %94

94:                                               ; preds = %86, %81
  %95 = load ptr, ptr %12, align 8
  call void @Aig_ManStop(ptr noundef %95)
  br label %96

96:                                               ; preds = %94, %28
  %97 = load i32, ptr %16, align 4
  %98 = icmp eq i32 %97, 1
  br i1 %98, label %99, label %106

99:                                               ; preds = %96
  call void (i32, ptr, ...) @Abc_Print(i32 noundef 1, ptr noundef @.str.31)
  call void (i32, ptr, ...) @Abc_Print(i32 noundef 1, ptr noundef @.str.32, ptr noundef @.str.25)
  %100 = call i64 @Abc_Clock()
  %101 = load i64, ptr %17, align 8
  %102 = sub nsw i64 %100, %101
  %103 = sitofp i64 %102 to double
  %104 = fmul double 1.000000e+00, %103
  %105 = fdiv double %104, 1.000000e+06
  call void (i32, ptr, ...) @Abc_Print(i32 noundef 1, ptr noundef @.str.33, double noundef %105)
  br label %124

106:                                              ; preds = %96
  %107 = load i32, ptr %16, align 4
  %108 = icmp eq i32 %107, 0
  br i1 %108, label %109, label %116

109:                                              ; preds = %106
  call void (i32, ptr, ...) @Abc_Print(i32 noundef 1, ptr noundef @.str.34)
  call void (i32, ptr, ...) @Abc_Print(i32 noundef 1, ptr noundef @.str.32, ptr noundef @.str.25)
  %110 = call i64 @Abc_Clock()
  %111 = load i64, ptr %17, align 8
  %112 = sub nsw i64 %110, %111
  %113 = sitofp i64 %112 to double
  %114 = fmul double 1.000000e+00, %113
  %115 = fdiv double %114, 1.000000e+06
  call void (i32, ptr, ...) @Abc_Print(i32 noundef 1, ptr noundef @.str.33, double noundef %115)
  br label %123

116:                                              ; preds = %106
  call void (i32, ptr, ...) @Abc_Print(i32 noundef 1, ptr noundef @.str.35)
  call void (i32, ptr, ...) @Abc_Print(i32 noundef 1, ptr noundef @.str.32, ptr noundef @.str.25)
  %117 = call i64 @Abc_Clock()
  %118 = load i64, ptr %17, align 8
  %119 = sub nsw i64 %117, %118
  %120 = sitofp i64 %119 to double
  %121 = fmul double 1.000000e+00, %120
  %122 = fdiv double %121, 1.000000e+06
  call void (i32, ptr, ...) @Abc_Print(i32 noundef 1, ptr noundef @.str.33, double noundef %122)
  br label %123

123:                                              ; preds = %116, %109
  br label %124

124:                                              ; preds = %123, %99
  %125 = load ptr, ptr @stdout, align 8
  %126 = call i32 @fflush(ptr noundef %125)
  %127 = load i32, ptr %16, align 4
  store i32 %127, ptr %6, align 4
  br label %128

128:                                              ; preds = %124, %80, %72, %67, %49
  %129 = load i32, ptr %6, align 4
  ret i32 %129
}