; Function Attrs: nounwind uwtable
define i32 @Abc_NtkDarCec(ptr noundef %0, ptr noundef %1, i32 noundef %2, i32 noundef %3, i32 noundef %4) local_unnamed_addr #1 {
  %6 = alloca %struct.timespec, align 8
  %7 = alloca %struct.timespec, align 8
  %8 = alloca %struct.timespec, align 8
  %9 = alloca %struct.timespec, align 8
  %10 = alloca ptr, align 8
  call void @llvm.lifetime.start.p0(i64 16, ptr nonnull %9)
  %11 = call i32 @clock_gettime(i32 noundef 1, ptr noundef nonnull %9) #19
  %12 = icmp slt i32 %11, 0
  br i1 %12, label %Abc_Clock.exit, label %13

13:                                               ; preds = %5
  %14 = load i64, ptr %9, align 8
  %.neg53 = mul i64 %14, -1000000
  %15 = getelementptr inbounds nuw i8, ptr %9, i64 8
  %16 = load i64, ptr %15, align 8
  %.neg = sdiv i64 %16, -1000
  %.neg54 = add i64 %.neg, %.neg53
  br label %Abc_Clock.exit

Abc_Clock.exit:                                   ; preds = %5, %13
  %.0.i.neg = phi i64 [ %.neg54, %13 ], [ 1, %5 ]
  call void @llvm.lifetime.end.p0(i64 16, ptr nonnull %9)
  %17 = icmp eq ptr %1, null
  %18 = icmp eq i32 %3, 1
  %or.cond = and i1 %17, %18
  br i1 %or.cond, label %.thread51, label %19

.thread51:                                        ; preds = %Abc_Clock.exit
  call void (i32, ptr, ...) @Abc_Print(i32 poison, ptr noundef nonnull @.str.26)
  br label %29

19:                                               ; preds = %Abc_Clock.exit
  %.not = icmp eq i32 %3, 0
  br i1 %.not, label %24, label %20

20:                                               ; preds = %19
  %21 = call ptr @Abc_NtkToDar(ptr noundef %0, i32 noundef 0, i32 noundef 0)
  %22 = call ptr @Abc_NtkToDar(ptr noundef %1, i32 noundef 0, i32 noundef 0)
  %23 = call i32 @Fra_FraigCecPartitioned(ptr noundef %21, ptr noundef %22, i32 noundef %2, i32 noundef 100, i32 noundef 1, i32 noundef %4) #19
  call void @Aig_ManStop(ptr noundef %21) #19
  br label %49

24:                                               ; preds = %19
  br i1 %17, label %29, label %25

25:                                               ; preds = %24
  %26 = call ptr @Abc_NtkMiter(ptr noundef %0, ptr noundef nonnull %1, i32 noundef 0, i32 noundef 0, i32 noundef 0, i32 noundef 0) #19
  %27 = icmp eq ptr %26, null
  br i1 %27, label %28, label %31

28:                                               ; preds = %25
  call void (i32, ptr, ...) @Abc_Print(i32 poison, ptr noundef nonnull @.str.27)
  br label %86

29:                                               ; preds = %.thread51, %24
  %30 = call ptr @Abc_NtkDup(ptr noundef %0) #19
  br label %31

31:                                               ; preds = %25, %29
  %.037 = phi ptr [ %26, %25 ], [ %30, %29 ]
  %32 = call i32 @Abc_NtkMiterIsConstant(ptr noundef %.037) #19
  switch i32 %32, label %39 [
    i32 0, label %33
    i32 1, label %38
  ]

33:                                               ; preds = %31
  call void (i32, ptr, ...) @Abc_Print(i32 poison, ptr noundef nonnull @.str.28)
  br i1 %17, label %34, label %37

34:                                               ; preds = %33
  %35 = call ptr @Abc_NtkVerifyGetCleanModel(ptr noundef %0, i32 noundef 1) #19
  %36 = getelementptr inbounds nuw i8, ptr %0, i64 304
  store ptr %35, ptr %36, align 8
  br label %37

37:                                               ; preds = %34, %33
  call void @Abc_NtkDelete(ptr noundef %.037) #19
  br label %86

38:                                               ; preds = %31
  call void @Abc_NtkDelete(ptr noundef %.037) #19
  call void (i32, ptr, ...) @Abc_Print(i32 poison, ptr noundef nonnull @.str.29)
  br label %86

39:                                               ; preds = %31
  %40 = call ptr @Abc_NtkToDar(ptr noundef %.037, i32 noundef 0, i32 noundef 0)
  store ptr %40, ptr %10, align 8
  call void @Abc_NtkDelete(ptr noundef %.037) #19
  %41 = icmp eq ptr %40, null
  br i1 %41, label %42, label %43

42:                                               ; preds = %39
  call void (i32, ptr, ...) @Abc_Print(i32 poison, ptr noundef nonnull @.str.30)
  br label %86

43:                                               ; preds = %39
  %44 = call i32 @Fra_FraigCec(ptr noundef nonnull %10, i32 noundef 100000, i32 noundef %4) #19
  %.pre = load ptr, ptr %10, align 8
  br i1 %17, label %45, label %49

45:                                               ; preds = %43
  %46 = getelementptr inbounds nuw i8, ptr %.pre, i64 296
  %47 = load ptr, ptr %46, align 8
  %48 = getelementptr inbounds nuw i8, ptr %0, i64 304
  store ptr %47, ptr %48, align 8
  store ptr null, ptr %46, align 8
  br label %49

49:                                               ; preds = %43, %45, %20
  %.pre.sink = phi ptr [ %22, %20 ], [ %.pre, %45 ], [ %.pre, %43 ]
  %.036 = phi i32 [ %23, %20 ], [ %44, %45 ], [ %44, %43 ]
  call void @Aig_ManStop(ptr noundef %.pre.sink) #19
  switch i32 %.036, label %70 [
    i32 1, label %50
    i32 0, label %60
  ]

50:                                               ; preds = %49
  call void (i32, ptr, ...) @Abc_Print(i32 poison, ptr noundef nonnull @.str.31)
  call void (i32, ptr, ...) @Abc_Print(i32 poison, ptr noundef nonnull @.str.32, ptr noundef nonnull @.str.25)
  call void @llvm.lifetime.start.p0(i64 16, ptr nonnull %8)
  %51 = call i32 @clock_gettime(i32 noundef 1, ptr noundef nonnull %8) #19
  %52 = icmp slt i32 %51, 0
  br i1 %52, label %Abc_Clock.exit44, label %53

53:                                               ; preds = %50
  %54 = load i64, ptr %8, align 8
  %55 = mul nsw i64 %54, 1000000
  %56 = getelementptr inbounds nuw i8, ptr %8, i64 8
  %57 = load i64, ptr %56, align 8
  %58 = sdiv i64 %57, 1000
  %59 = add nsw i64 %58, %55
  br label %Abc_Clock.exit44

Abc_Clock.exit44:                                 ; preds = %50, %53
  %.0.i43 = phi i64 [ %59, %53 ], [ -1, %50 ]
  call void @llvm.lifetime.end.p0(i64 16, ptr nonnull %8)
  br label %80

60:                                               ; preds = %49
  call void (i32, ptr, ...) @Abc_Print(i32 poison, ptr noundef nonnull @.str.34)
  call void (i32, ptr, ...) @Abc_Print(i32 poison, ptr noundef nonnull @.str.32, ptr noundef nonnull @.str.25)
  call void @llvm.lifetime.start.p0(i64 16, ptr nonnull %7)
  %61 = call i32 @clock_gettime(i32 noundef 1, ptr noundef nonnull %7) #19
  %62 = icmp slt i32 %61, 0
  br i1 %62, label %Abc_Clock.exit46, label %63

63:                                               ; preds = %60
  %64 = load i64, ptr %7, align 8
  %65 = mul nsw i64 %64, 1000000
  %66 = getelementptr inbounds nuw i8, ptr %7, i64 8
  %67 = load i64, ptr %66, align 8
  %68 = sdiv i64 %67, 1000
  %69 = add nsw i64 %68, %65
  br label %Abc_Clock.exit46

Abc_Clock.exit46:                                 ; preds = %60, %63
  %.0.i45 = phi i64 [ %69, %63 ], [ -1, %60 ]
  call void @llvm.lifetime.end.p0(i64 16, ptr nonnull %7)
  br label %80

70:                                               ; preds = %49
  call void (i32, ptr, ...) @Abc_Print(i32 poison, ptr noundef nonnull @.str.35)
  call void (i32, ptr, ...) @Abc_Print(i32 poison, ptr noundef nonnull @.str.32, ptr noundef nonnull @.str.25)
  call void @llvm.lifetime.start.p0(i64 16, ptr nonnull %6)
  %71 = call i32 @clock_gettime(i32 noundef 1, ptr noundef nonnull %6) #19
  %72 = icmp slt i32 %71, 0
  br i1 %72, label %Abc_Clock.exit48, label %73

73:                                               ; preds = %70
  %74 = load i64, ptr %6, align 8
  %75 = mul nsw i64 %74, 1000000
  %76 = getelementptr inbounds nuw i8, ptr %6, i64 8
  %77 = load i64, ptr %76, align 8
  %78 = sdiv i64 %77, 1000
  %79 = add nsw i64 %78, %75
  br label %Abc_Clock.exit48

Abc_Clock.exit48:                                 ; preds = %70, %73
  %.0.i47 = phi i64 [ %79, %73 ], [ -1, %70 ]
  call void @llvm.lifetime.end.p0(i64 16, ptr nonnull %6)
  br label %80

80:                                               ; preds = %Abc_Clock.exit46, %Abc_Clock.exit48, %Abc_Clock.exit44
  %.0.i45.sink = phi i64 [ %.0.i45, %Abc_Clock.exit46 ], [ %.0.i47, %Abc_Clock.exit48 ], [ %.0.i43, %Abc_Clock.exit44 ]
  %81 = add i64 %.0.i.neg, %.0.i45.sink
  %82 = sitofp i64 %81 to double
  %83 = fdiv double %82, 1.000000e+06
  call void (i32, ptr, ...) @Abc_Print(i32 poison, ptr noundef nonnull @.str.33, double noundef %83)
  %84 = load ptr, ptr @stdout, align 8
  %85 = call i32 @fflush(ptr noundef %84)
  br label %86

86:                                               ; preds = %80, %42, %38, %37, %28
  %.0 = phi i32 [ %.036, %80 ], [ 0, %28 ], [ 0, %37 ], [ 1, %38 ], [ -1, %42 ]
  ret i32 %.0
}